target datalayout = "e-m:e-p270:32:32-p271:32:32-p272:64:64-i64:64-i128:128-f80:128-n8:16:32:64-S128"
target triple = "x86_64-pc-linux-gnu"

%struct.h5tools_str_t = type { ptr, i64, i64 }
%struct.h5tools_context_t = type { i64, i64, i32, i32, [32 x i64], [32 x i64], i32, i64, i32, i64, i32, i32, [32 x i64], [32 x i64], i64, ptr, ptr, i32, i32 }
%struct.h5tool_format_t = type { i8, ptr, ptr, ptr, ptr, ptr, ptr, ptr, ptr, ptr, ptr, ptr, ptr, ptr, ptr, ptr, ptr, ptr, i32, i32, i32, ptr, ptr, ptr, i32, ptr, ptr, ptr, ptr, ptr, ptr, ptr, ptr, ptr, ptr, ptr, ptr, ptr, ptr, ptr, ptr, i32, i64, ptr, ptr, ptr, ptr, ptr, i32, ptr, i32, i32, ptr, i32, ptr, ptr, ptr, ptr, i32, i32 }

@.str.88 = private unnamed_addr constant [1 x i8] zeroinitializer, align 1

; Function Attrs: nounwind uwtable
define void @h5tools_region_simple_prefix(ptr noundef %0, ptr noundef %1, ptr noundef %2, i64 noundef %3, ptr noundef %4, i32 noundef %5) #0 {
  %7 = alloca ptr, align 8
  %8 = alloca ptr, align 8
  %9 = alloca ptr, align 8
  %10 = alloca i64, align 8
  %11 = alloca ptr, align 8
  %12 = alloca i32, align 4
  %13 = alloca %struct.h5tools_str_t, align 8
  %14 = alloca %struct.h5tools_str_t, align 8
  %15 = alloca i64, align 8
  %16 = alloca i32, align 4
  %17 = alloca i32, align 4
  %18 = alloca i32, align 4
  store ptr %0, ptr %7, align 8, !tbaa !9
  store ptr %1, ptr %8, align 8, !tbaa !36
  store ptr %2, ptr %9, align 8, !tbaa !38
  store i64 %3, ptr %10, align 8, !tbaa !7
  store ptr %4, ptr %11, align 8, !tbaa !59
  store i32 %5, ptr %12, align 4, !tbaa !3
  call void @llvm.lifetime.start.p0(i64 24, ptr %13) #10
  call void @llvm.lifetime.start.p0(i64 24, ptr %14) #10
  call void @llvm.lifetime.start.p0(i64 8, ptr %15) #10
  store i64 0, ptr %15, align 8, !tbaa !7
  call void @llvm.lifetime.start.p0(i64 4, ptr %16) #10
  call void @llvm.lifetime.start.p0(i64 4, ptr %17) #10
  store i32 0, ptr %17, align 4, !tbaa !3
  %19 = load ptr, ptr %7, align 8, !tbaa !9
  %20 = icmp eq ptr %19, null
  br i1 %20, label %21, label %22

21:                                               ; preds = %6
  store i32 1, ptr %18, align 4
  br label %231

22:                                               ; preds = %6
  %23 = load ptr, ptr %9, align 8, !tbaa !38
  %24 = getelementptr inbounds nuw %struct.h5tools_context_t, ptr %23, i32 0, i32 2
  %25 = load i32, ptr %24, align 8, !tbaa !40
  %26 = icmp ne i32 %25, 0
  br i1 %26, label %28, label %27

27:                                               ; preds = %22
  store i32 1, ptr %18, align 4
  br label %231

28:                                               ; preds = %22
  call void @llvm.memset.p0.i64(ptr align 8 %13, i8 0, i64 24, i1 false)
  call void @llvm.memset.p0.i64(ptr align 8 %14, i8 0, i64 24, i1 false)
  %29 = load ptr, ptr %9, align 8, !tbaa !38
  %30 = getelementptr inbounds nuw %struct.h5tools_context_t, ptr %29, i32 0, i32 0
  %31 = load i64, ptr %30, align 8, !tbaa !44
  %32 = icmp ne i64 %31, 0
  br i1 %32, label %33, label %76

33:                                               ; preds = %28
  br label %34

34:                                               ; preds = %33
  %35 = load ptr, ptr %7, align 8, !tbaa !9
  %36 = icmp ne ptr %35, null
  br i1 %36, label %37, label %51

37:                                               ; preds = %34
  %38 = load ptr, ptr %8, align 8, !tbaa !36
  %39 = getelementptr inbounds nuw %struct.h5tool_format_t, ptr %38, i32 0, i32 46
  %40 = load ptr, ptr %39, align 8, !tbaa !45
  %41 = icmp ne ptr %40, null
  br i1 %41, label %42, label %46

42:                                               ; preds = %37
  %43 = load ptr, ptr %8, align 8, !tbaa !36
  %44 = getelementptr inbounds nuw %struct.h5tool_format_t, ptr %43, i32 0, i32 46
  %45 = load ptr, ptr %44, align 8, !tbaa !45
  br label %47

46:                                               ; preds = %37
  br label %47

47:                                               ; preds = %46, %42
  %48 = phi ptr [ %45, %42 ], [ @.str.88, %46 ]
  %49 = load ptr, ptr %7, align 8, !tbaa !9
  %50 = call i32 @fputs(ptr noundef %48, ptr noundef %49)
  br label %51

51:                                               ; preds = %47, %34
  br label %52

52:                                               ; preds = %51
  br label %53

53:                                               ; preds = %52
  %54 = load ptr, ptr %7, align 8, !tbaa !9
  %55 = call i32 @putc(i32 noundef 10, ptr noundef %54)
  br label %56

56:                                               ; preds = %53
  %57 = load ptr, ptr %7, align 8, !tbaa !9
  %58 = icmp ne ptr %57, null
  br i1 %58, label %59, label %73

59:                                               ; preds = %56
  %60 = load ptr, ptr %8, align 8, !tbaa !36
  %61 = getelementptr inbounds nuw %struct.h5tool_format_t, ptr %60, i32 0, i32 47
  %62 = load ptr, ptr %61, align 8, !tbaa !47
  %63 = icmp ne ptr %62, null
  br i1 %63, label %64, label %68

64:                                               ; preds = %59
  %65 = load ptr, ptr %8, align 8, !tbaa !36
  %66 = getelementptr inbounds nuw %struct.h5tool_format_t, ptr %65, i32 0, i32 47
  %67 = load ptr, ptr %66, align 8, !tbaa !47
  br label %69

68:                                               ; preds = %59
  br label %69

69:                                               ; preds = %68, %64
  %70 = phi ptr [ %67, %64 ], [ @.str.88, %68 ]
  %71 = load ptr, ptr %7, align 8, !tbaa !9
  %72 = call i32 @fputs(ptr noundef %70, ptr noundef %71)
  br label %73

73:                                               ; preds = %69, %56
  br label %74

74:                                               ; preds = %73
  br label %75

75:                                               ; preds = %74
  br label %76

76:                                               ; preds = %75, %28
  %77 = load ptr, ptr %8, align 8, !tbaa !36
  %78 = load i64, ptr %10, align 8, !tbaa !7
  %79 = load ptr, ptr %11, align 8, !tbaa !59
  %80 = load ptr, ptr %9, align 8, !tbaa !38
  %81 = call ptr @h5tools_str_region_prefix(ptr noundef %13, ptr noundef %77, i64 noundef %78, ptr noundef %79, ptr noundef %80)
  %82 = load ptr, ptr %9, align 8, !tbaa !38
  %83 = getelementptr inbounds nuw %struct.h5tools_context_t, ptr %82, i32 0, i32 10
  %84 = load i32, ptr %83, align 8, !tbaa !48
  %85 = icmp ugt i32 %84, 0
  br i1 %85, label %86, label %90

86:                                               ; preds = %76
  %87 = load ptr, ptr %9, align 8, !tbaa !38
  %88 = getelementptr inbounds nuw %struct.h5tools_context_t, ptr %87, i32 0, i32 10
  %89 = load i32, ptr %88, align 8, !tbaa !48
  store i32 %89, ptr %17, align 4, !tbaa !3
  br label %94

90:                                               ; preds = %76
  %91 = load ptr, ptr %9, align 8, !tbaa !38
  %92 = getelementptr inbounds nuw %struct.h5tools_context_t, ptr %91, i32 0, i32 11
  %93 = load i32, ptr %92, align 4, !tbaa !49
  store i32 %93, ptr %17, align 4, !tbaa !3
  br label %94

94:                                               ; preds = %90, %86
  %95 = load ptr, ptr %8, align 8, !tbaa !36
  %96 = getelementptr inbounds nuw %struct.h5tool_format_t, ptr %95, i32 0, i32 58
  %97 = load i32, ptr %96, align 8, !tbaa !50
  %98 = icmp ne i32 %97, 0
  br i1 %98, label %99, label %123

99:                                               ; preds = %94
  store i32 0, ptr %16, align 4, !tbaa !3
  br label %100

100:                                              ; preds = %119, %99
  %101 = load i32, ptr %16, align 4, !tbaa !3
  %102 = load i32, ptr %17, align 4, !tbaa !3
  %103 = sub i32 %102, 1
  %104 = icmp ult i32 %101, %103
  br i1 %104, label %105, label %122

105:                                              ; preds = %100
  br label %106

106:                                              ; preds = %105
  %107 = load ptr, ptr %7, align 8, !tbaa !9
  %108 = icmp ne ptr %107, null
  br i1 %108, label %109, label %116

109:                                              ; preds = %106
  %110 = load ptr, ptr %8, align 8, !tbaa !36
  %111 = getelementptr inbounds nuw %struct.h5tool_format_t, ptr %110, i32 0, i32 49
  %112 = load ptr, ptr %111, align 8, !tbaa !51
  %113 = call ptr @h5tools_str_fmt(ptr noundef %14, i64 noundef 0, ptr noundef %112)
  %114 = load ptr, ptr %7, align 8, !tbaa !9
  %115 = call i32 @fputs(ptr noundef %113, ptr noundef %114)
  br label %116

116:                                              ; preds = %109, %106
  br label %117

117:                                              ; preds = %116
  br label %118

118:                                              ; preds = %117
  br label %119

119:                                              ; preds = %118
  %120 = load i32, ptr %16, align 4, !tbaa !3
  %121 = add i32 %120, 1
  store i32 %121, ptr %16, align 4, !tbaa !3
  br label %100, !llvm.loop !61

122:                                              ; preds = %100
  br label %123

123:                                              ; preds = %122, %94
  %124 = load i64, ptr %10, align 8, !tbaa !7
  %125 = icmp eq i64 %124, 0
  br i1 %125, label %126, label %148

126:                                              ; preds = %123
  %127 = load i32, ptr %12, align 4, !tbaa !3
  %128 = icmp eq i32 %127, 0
  br i1 %128, label %129, label %148

129:                                              ; preds = %126
  %130 = load ptr, ptr %8, align 8, !tbaa !36
  %131 = getelementptr inbounds nuw %struct.h5tool_format_t, ptr %130, i32 0, i32 44
  %132 = load ptr, ptr %131, align 8, !tbaa !53
  %133 = icmp ne ptr %132, null
  br i1 %133, label %134, label %148

134:                                              ; preds = %129
  br label %135

135:                                              ; preds = %134
  %136 = load ptr, ptr %7, align 8, !tbaa !9
  %137 = icmp ne ptr %136, null
  br i1 %137, label %138, label %145

138:                                              ; preds = %135
  %139 = load ptr, ptr %8, align 8, !tbaa !36
  %140 = getelementptr inbounds nuw %struct.h5tool_format_t, ptr %139, i32 0, i32 44
  %141 = load ptr, ptr %140, align 8, !tbaa !53
  %142 = call ptr @h5tools_str_fmt(ptr noundef %13, i64 noundef 0, ptr noundef %141)
  %143 = load ptr, ptr %7, align 8, !tbaa !9
  %144 = call i32 @fputs(ptr noundef %142, ptr noundef %143)
  br label %145

145:                                              ; preds = %138, %135
  br label %146

146:                                              ; preds = %145
  br label %147

147:                                              ; preds = %146
  br label %185

148:                                              ; preds = %129, %126, %123
  %149 = load i32, ptr %12, align 4, !tbaa !3
  %150 = icmp ne i32 %149, 0
  br i1 %150, label %151, label %170

151:                                              ; preds = %148
  %152 = load ptr, ptr %8, align 8, !tbaa !36
  %153 = getelementptr inbounds nuw %struct.h5tool_format_t, ptr %152, i32 0, i32 45
  %154 = load ptr, ptr %153, align 8, !tbaa !54
  %155 = icmp ne ptr %154, null
  br i1 %155, label %156, label %170

156:                                              ; preds = %151
  br label %157

157:                                              ; preds = %156
  %158 = load ptr, ptr %7, align 8, !tbaa !9
  %159 = icmp ne ptr %158, null
  br i1 %159, label %160, label %167

160:                                              ; preds = %157
  %161 = load ptr, ptr %8, align 8, !tbaa !36
  %162 = getelementptr inbounds nuw %struct.h5tool_format_t, ptr %161, i32 0, i32 45
  %163 = load ptr, ptr %162, align 8, !tbaa !54
  %164 = call ptr @h5tools_str_fmt(ptr noundef %13, i64 noundef 0, ptr noundef %163)
  %165 = load ptr, ptr %7, align 8, !tbaa !9
  %166 = call i32 @fputs(ptr noundef %164, ptr noundef %165)
  br label %167

167:                                              ; preds = %160, %157
  br label %168

168:                                              ; preds = %167
  br label %169

169:                                              ; preds = %168
  br label %184

170:                                              ; preds = %151, %148
  br label %171

171:                                              ; preds = %170
  %172 = load ptr, ptr %7, align 8, !tbaa !9
  %173 = icmp ne ptr %172, null
  br i1 %173, label %174, label %181

174:                                              ; preds = %171
  %175 = load ptr, ptr %8, align 8, !tbaa !36
  %176 = getelementptr inbounds nuw %struct.h5tool_format_t, ptr %175, i32 0, i32 43
  %177 = load ptr, ptr %176, align 8, !tbaa !55
  %178 = call ptr @h5tools_str_fmt(ptr noundef %13, i64 noundef 0, ptr noundef %177)
  %179 = load ptr, ptr %7, align 8, !tbaa !9
  %180 = call i32 @fputs(ptr noundef %178, ptr noundef %179)
  br label %181

181:                                              ; preds = %174, %171
  br label %182

182:                                              ; preds = %181
  br label %183

183:                                              ; preds = %182
  br label %184

184:                                              ; preds = %183, %169
  br label %185

185:                                              ; preds = %184, %147
  %186 = call i64 @h5tools_str_len(ptr noundef %13)
  store i64 %186, ptr %15, align 8, !tbaa !7
  store i32 0, ptr %16, align 4, !tbaa !3
  br label %187

187:                                              ; preds = %218, %185
  %188 = load i32, ptr %16, align 4, !tbaa !3
  %189 = load i32, ptr %17, align 4, !tbaa !3
  %190 = icmp ult i32 %188, %189
  br i1 %190, label %191, label %221

191:                                              ; preds = %187
  %192 = load ptr, ptr %8, align 8, !tbaa !36
  %193 = getelementptr inbounds nuw %struct.h5tool_format_t, ptr %192, i32 0, i32 58
  %194 = load i32, ptr %193, align 8, !tbaa !50
  %195 = icmp ne i32 %194, 0
  br i1 %195, label %213, label %196

196:                                              ; preds = %191
  br label %197

197:                                              ; preds = %196
  %198 = load ptr, ptr %7, align 8, !tbaa !9
  %199 = icmp ne ptr %198, null
  br i1 %199, label %200, label %207

200:                                              ; preds = %197
  %201 = load ptr, ptr %8, align 8, !tbaa !36
  %202 = getelementptr inbounds nuw %struct.h5tool_format_t, ptr %201, i32 0, i32 49
  %203 = load ptr, ptr %202, align 8, !tbaa !51
  %204 = call ptr @h5tools_str_fmt(ptr noundef %13, i64 noundef 0, ptr noundef %203)
  %205 = load ptr, ptr %7, align 8, !tbaa !9
  %206 = call i32 @fputs(ptr noundef %204, ptr noundef %205)
  br label %207

207:                                              ; preds = %200, %197
  br label %208

208:                                              ; preds = %207
  br label %209

209:                                              ; preds = %208
  %210 = call i64 @h5tools_str_len(ptr noundef %13)
  %211 = load i64, ptr %15, align 8, !tbaa !7
  %212 = add i64 %211, %210
  store i64 %212, ptr %15, align 8, !tbaa !7
  br label %217

213:                                              ; preds = %191
  %214 = call i64 @h5tools_str_len(ptr noundef %14)
  %215 = load i64, ptr %15, align 8, !tbaa !7
  %216 = add i64 %215, %214
  store i64 %216, ptr %15, align 8, !tbaa !7
  br label %217

217:                                              ; preds = %213, %209
  br label %218

218:                                              ; preds = %217
  %219 = load i32, ptr %16, align 4, !tbaa !3
  %220 = add i32 %219, 1
  store i32 %220, ptr %16, align 4, !tbaa !3
  br label %187, !llvm.loop !62

221:                                              ; preds = %187
  %222 = load i64, ptr %15, align 8, !tbaa !7
  %223 = load ptr, ptr %9, align 8, !tbaa !38
  %224 = getelementptr inbounds nuw %struct.h5tools_context_t, ptr %223, i32 0, i32 7
  store i64 %222, ptr %224, align 8, !tbaa !57
  %225 = load ptr, ptr %9, align 8, !tbaa !38
  %226 = getelementptr inbounds nuw %struct.h5tools_context_t, ptr %225, i32 0, i32 0
  store i64 %222, ptr %226, align 8, !tbaa !44
  %227 = load ptr, ptr %9, align 8, !tbaa !38
  %228 = getelementptr inbounds nuw %struct.h5tools_context_t, ptr %227, i32 0, i32 1
  store i64 0, ptr %228, align 8, !tbaa !58
  %229 = load ptr, ptr %9, align 8, !tbaa !38
  %230 = getelementptr inbounds nuw %struct.h5tools_context_t, ptr %229, i32 0, i32 2
  store i32 0, ptr %230, align 8, !tbaa !40
  call void @h5tools_str_close(ptr noundef %13)
  call void @h5tools_str_close(ptr noundef %14)
  store i32 0, ptr %18, align 4
  br label %231

231:                                              ; preds = %221, %27, %21
  call void @llvm.lifetime.end.p0(i64 4, ptr %17) #10
  call void @llvm.lifetime.end.p0(i64 4, ptr %16) #10
  call void @llvm.lifetime.end.p0(i64 8, ptr %15) #10
  call void @llvm.lifetime.end.p0(i64 24, ptr %14) #10
  call void @llvm.lifetime.end.p0(i64 24, ptr %13) #10
  %232 = load i32, ptr %18, align 4
  switch i32 %232, label %234 [
    i32 0, label %233
    i32 1, label %233
  ]

233:                                              ; preds = %231, %231
  ret void

234:                                              ; preds = %231
  unreachable
}