; Function Attrs: nounwind uwtable
define void @h5tools_region_simple_prefix(ptr noundef captures(address_is_null) %0, ptr noundef %1, ptr noundef %2, i64 noundef %3, ptr noundef %4, i32 noundef %5) local_unnamed_addr #0 {
  %7 = alloca %struct.h5tools_str_t, align 8
  %8 = alloca %struct.h5tools_str_t, align 8
  call void @llvm.lifetime.start.p0(i64 24, ptr nonnull %7) #16
  call void @llvm.lifetime.start.p0(i64 24, ptr nonnull %8) #16
  %9 = icmp eq ptr %0, null
  br i1 %9, label %68, label %10

10:                                               ; preds = %6
  %11 = getelementptr inbounds nuw i8, ptr %2, i64 16
  %12 = load i32, ptr %11, align 8, !tbaa !30
  %.not = icmp eq i32 %12, 0
  br i1 %.not, label %68, label %13

13:                                               ; preds = %10
  call void @llvm.memset.p0.i64(ptr noundef nonnull align 8 dereferenceable(24) %7, i8 0, i64 24, i1 false)
  call void @llvm.memset.p0.i64(ptr noundef nonnull align 8 dereferenceable(24) %8, i8 0, i64 24, i1 false)
  %14 = load i64, ptr %2, align 8, !tbaa !34
  %.not63 = icmp eq i64 %14, 0
  br i1 %.not63, label %24, label %15

15:                                               ; preds = %13
  %16 = getelementptr inbounds nuw i8, ptr %1, i64 360
  %17 = load ptr, ptr %16, align 8, !tbaa !35
  %.not64 = icmp eq ptr %17, null
  %spec.select = select i1 %.not64, ptr @.str.88, ptr %17
  %18 = tail call i32 @fputs(ptr noundef nonnull %spec.select, ptr noundef nonnull %0)
  %19 = tail call i32 @putc(i32 noundef 10, ptr noundef nonnull %0)
  %20 = getelementptr inbounds nuw i8, ptr %1, i64 368
  %21 = load ptr, ptr %20, align 8, !tbaa !37
  %.not65 = icmp eq ptr %21, null
  %22 = select i1 %.not65, ptr @.str.88, ptr %21
  %23 = tail call i32 @fputs(ptr noundef nonnull %22, ptr noundef nonnull %0)
  br label %24

24:                                               ; preds = %15, %13
  %25 = call ptr @h5tools_str_region_prefix(ptr noundef nonnull %7, ptr noundef %1, i64 noundef %3, ptr noundef %4, ptr noundef nonnull %2) #16
  %26 = getelementptr inbounds nuw i8, ptr %2, i64 568
  %27 = load i32, ptr %26, align 8, !tbaa !38
  %.not66 = icmp eq i32 %27, 0
  br i1 %.not66, label %28, label %31

28:                                               ; preds = %24
  %29 = getelementptr inbounds nuw i8, ptr %2, i64 572
  %30 = load i32, ptr %29, align 4, !tbaa !39
  br label %31

31:                                               ; preds = %24, %28
  %.0 = phi i32 [ %30, %28 ], [ %27, %24 ]
  %32 = getelementptr inbounds nuw i8, ptr %1, i64 448
  %33 = load i32, ptr %32, align 8, !tbaa !40
  %.not67 = icmp eq i32 %33, 0
  br i1 %.not67, label %.loopexit, label %.preheader

.preheader:                                       ; preds = %31
  %34 = add i32 %.0, -1
  %.not76 = icmp eq i32 %34, 0
  br i1 %.not76, label %.loopexit, label %.lr.ph

.lr.ph:                                           ; preds = %.preheader
  %35 = getelementptr inbounds nuw i8, ptr %1, i64 384
  br label %36

36:                                               ; preds = %.lr.ph, %36
  %.05472 = phi i32 [ 0, %.lr.ph ], [ %40, %36 ]
  %37 = load ptr, ptr %35, align 8, !tbaa !41
  %38 = call ptr @h5tools_str_fmt(ptr noundef nonnull %8, i64 noundef 0, ptr noundef %37) #16
  %39 = call i32 @fputs(ptr noundef %38, ptr noundef nonnull %0)
  %40 = add nuw i32 %.05472, 1
  %exitcond.not = icmp eq i32 %40, %34
  br i1 %exitcond.not, label %.loopexit, label %36, !llvm.loop !49

.loopexit:                                        ; preds = %36, %.preheader, %31
  %41 = icmp eq i64 %3, 0
  %42 = icmp eq i32 %5, 0
  %or.cond = and i1 %41, %42
  br i1 %or.cond, label %43, label %46

43:                                               ; preds = %.loopexit
  %44 = getelementptr inbounds nuw i8, ptr %1, i64 344
  %45 = load ptr, ptr %44, align 8, !tbaa !43
  %.not68 = icmp eq ptr %45, null
  br i1 %.not68, label %.thread, label %52

46:                                               ; preds = %.loopexit
  br i1 %42, label %.thread, label %47

47:                                               ; preds = %46
  %48 = getelementptr inbounds nuw i8, ptr %1, i64 352
  %49 = load ptr, ptr %48, align 8, !tbaa !44
  %.not70 = icmp eq ptr %49, null
  br i1 %.not70, label %.thread, label %52

.thread:                                          ; preds = %43, %47, %46
  %50 = getelementptr inbounds nuw i8, ptr %1, i64 336
  %51 = load ptr, ptr %50, align 8, !tbaa !45
  br label %52

52:                                               ; preds = %47, %43, %.thread
  %.sink79 = phi ptr [ %51, %.thread ], [ %45, %43 ], [ %49, %47 ]
  %53 = call ptr @h5tools_str_fmt(ptr noundef nonnull %7, i64 noundef 0, ptr noundef %.sink79) #16
  %54 = call i32 @fputs(ptr noundef %53, ptr noundef nonnull %0)
  %55 = call i64 @h5tools_str_len(ptr noundef nonnull %7) #16
  %.not77 = icmp eq i32 %.0, 0
  br i1 %.not77, label %._crit_edge, label %.lr.ph75

.lr.ph75:                                         ; preds = %52
  %56 = getelementptr inbounds nuw i8, ptr %1, i64 384
  br label %57

57:                                               ; preds = %.lr.ph75, %63
  %.174 = phi i32 [ 0, %.lr.ph75 ], [ %65, %63 ]
  %.05573 = phi i64 [ %55, %.lr.ph75 ], [ %.156, %63 ]
  %58 = load i32, ptr %32, align 8, !tbaa !40
  %.not71 = icmp eq i32 %58, 0
  br i1 %.not71, label %59, label %63

59:                                               ; preds = %57
  %60 = load ptr, ptr %56, align 8, !tbaa !41
  %61 = call ptr @h5tools_str_fmt(ptr noundef nonnull %7, i64 noundef 0, ptr noundef %60) #16
  %62 = call i32 @fputs(ptr noundef %61, ptr noundef nonnull %0)
  br label %63

63:                                               ; preds = %57, %59
  %.sink = phi ptr [ %7, %59 ], [ %8, %57 ]
  %64 = call i64 @h5tools_str_len(ptr noundef nonnull %.sink) #16
  %.156 = add i64 %64, %.05573
  %65 = add nuw i32 %.174, 1
  %exitcond78.not = icmp eq i32 %65, %.0
  br i1 %exitcond78.not, label %._crit_edge, label %57, !llvm.loop !50

._crit_edge:                                      ; preds = %63, %52
  %.055.lcssa = phi i64 [ %55, %52 ], [ %.156, %63 ]
  %66 = getelementptr inbounds nuw i8, ptr %2, i64 544
  store i64 %.055.lcssa, ptr %66, align 8, !tbaa !47
  store i64 %.055.lcssa, ptr %2, align 8, !tbaa !34
  %67 = getelementptr inbounds nuw i8, ptr %2, i64 8
  store i64 0, ptr %67, align 8, !tbaa !48
  store i32 0, ptr %11, align 8, !tbaa !30
  call void @h5tools_str_close(ptr noundef nonnull %7) #16
  call void @h5tools_str_close(ptr noundef nonnull %8) #16
  br label %68

68:                                               ; preds = %10, %6, %._crit_edge
  call void @llvm.lifetime.end.p0(i64 24, ptr nonnull %8) #16
  call void @llvm.lifetime.end.p0(i64 24, ptr nonnull %7) #16
  ret void
}